Microchip MPLAB XC8 Compiler V2.41

Linker command line:

-W-3 \
  --edf=C:\Program Files\Microchip\xc8\v2.41\pic\dat\20230208172133_en.msgs \
  -cn -h+dist/default/production\Voltmeter.X.production.sym \
  --cmf=dist/default/production\Voltmeter.X.production.cmf -z -Q16F84A \
  -oC:\Users\mrajz\AppData\Local\Temp\xcAs2f4.\driver_tmp_3.o \
  --defsym=__MPLAB_BUILD=1 --fixupoverflow=error \
  -Mdist/default/production/Voltmeter.X.production.map \
  --md=C:\Users\mrajz\AppData\Local\Temp\xcAs2f4.\driver_tmp_0.dat -E1 \
  -ver=XC8 Compiler --acfsm=1493 -ACODE=00h-03FFh -ASTRCODE=00h-03FFh \
  -ASTRING=00h-0FFhx4 -ACONST=00h-0FFhx4 -AENTRY=00h-0FFhx4 \
  -ABANK0=0Ch-04Dh -ARAM=0Ch-04Dh -AABS1=0Ch-04Fh -ACOMMON=04Eh-04Fh \
  -ASFR0=00h-0Bh -ASFR1=080h-0CDh -ACONFIG=02007h-02007h -DCONFIG=2 \
  -AIDLOC=02000h-02003h -DIDLOC=2 -AEEDATA=00h-03Fh/02100h \
  -peeprom_data=EEDATA -DEEDATA=2 -DCODE=2 -DSTRCODE=2 -DSTRING=2 -DCONST=2 \
  -DENTRY=2 -preset_vec=00h,intentry,init,end_init -ppowerup=CODE \
  -pcinit=CODE -pfunctab=ENTRY -k \
  C:\Users\mrajz\AppData\Local\Temp\xcAs2f4.\driver_tmp_12.o \
  dist/default/production\Voltmeter.X.production.o 

Object code version is 3.11

Machine type is 16F84A



                Name                               Link     Load   Length Selector   Space Scale
C:\Users\mrajz\AppData\Local\Temp\xcAs2f4.\driver_tmp_12.o
                end_init                              0        0        1        0       0
                config                             2007     2007        1        0       4
dist/default/production\Voltmeter.X.production.o
                cinit                               3F9      3F9        7      7F2       0
                config                             2007     2007        1        0       4
                text13                               FC       FC       1F      1F8       0
                text12                               E9       E9       13      1D2       0
                text11                               DA       DA        F      1B4       0
                text10                              186      186       34      30C       0
                text9                               1BA      1BA       39      374       0
                text8                               13A      13A       26      274       0
                text7                               11B      11B       1F      236       0
                text6                               22E      22E       45      45C       0
                text5                               1F3      1F3       3B      3E6       0
                text4                               2C6      2C6       5E      58C       0
                text3                                CC       CC        E      198       0
                text2                               160      160       26      2C0       0
                text1                               273      273       53      4E6       0
                maintext                            324      324       D5      648       0
                cstackBANK0                           C        C       39        C       1
                bssBANK0                             45       45        4        C       1

TOTAL           Name                               Link     Load   Length     Space
        CLASS   CODE           
                end_init                              0        0        1         0
                cinit                               3F9      3F9        7         0
                text13                               FC       FC       1F         0
                text12                               E9       E9       13         0
                text11                               DA       DA        F         0
                text10                              186      186       34         0
                text9                               1BA      1BA       39         0
                text8                               13A      13A       26         0
                text7                               11B      11B       1F         0
                text6                               22E      22E       45         0
                text5                               1F3      1F3       3B         0
                text4                               2C6      2C6       5E         0
                text3                                CC       CC        E         0
                text2                               160      160       26         0
                text1                               273      273       53         0
                maintext                            324      324       D5         0

        CLASS   STRCODE        

        CLASS   STRING         

        CLASS   CONST          

        CLASS   ENTRY          

        CLASS   BANK0          
                cstackBANK0                           C        C       39         1
                bssBANK0                             45       45        4         1

        CLASS   RAM            

        CLASS   ABS1           
                abs_s1                               4E       4E        2         1

        CLASS   COMMON         

        CLASS   SFR0           

        CLASS   SFR1           

        CLASS   CONFIG         
                config                             2007     2007        1         4

        CLASS   IDLOC          

        CLASS   EEDATA         

        CLASS   BANK1          

        CLASS   STACK          



SEGMENTS        Name                           Load    Length   Top    Selector   Space  Class     Delta

                reset_vec                      000000  000001  000001         0       0  CODE        2
                cstackBANK0                    00000C  00003D  000049         C       1  BANK0       1
                text3                          0000CC  00000E  0000DA       198       0  CODE        2
                text11                         0000DA  00000F  0000E9       1B4       0  CODE        2
                text12                         0000E9  000013  0000FC       1D2       0  CODE        2
                text13                         0000FC  00001F  00011B       1F8       0  CODE        2
                text7                          00011B  00001F  00013A       236       0  CODE        2
                text8                          00013A  000026  000160       274       0  CODE        2
                text2                          000160  000026  000186       2C0       0  CODE        2
                text10                         000186  000034  0001BA       30C       0  CODE        2
                text9                          0001BA  000039  0001F3       374       0  CODE        2
                text5                          0001F3  00003B  00022E       3E6       0  CODE        2
                text6                          00022E  000045  000273       45C       0  CODE        2
                text1                          000273  000053  0002C6       4E6       0  CODE        2
                text4                          0002C6  00005E  000324       58C       0  CODE        2
                maintext                       000324  0000D5  0003F9       648       0  CODE        2
                cinit                          0003F9  000007  000400       7F2       0  CODE        2


UNUSED ADDRESS RANGES

        Name                Unused          Largest block    Delta
        BANK0            0049-004D              5           1
        CODE             0001-00CB             CB           2
        CONST            0001-00CB             CB           2
        EEDATA           2100-213F             40           2
        ENTRY            0001-00CB             CB           2
        IDLOC            2000-2003              4           2
        RAM              0049-004D              5           1
        SFR0             0000-000B              C           1
        SFR1             0080-00CD             4E           1
        STRCODE          0001-00CB             CB           2
        STRING           0001-00CB             CB           2

                                  Symbol Table

?___lwdiv                 cstackBANK0  0012
?___lwmod                 cstackBANK0  000C
?___wmul                  cstackBANK0  000C
?_readADC                 cstackBANK0  000C
Lcd_Cmd@a                 cstackBANK0  000F
Lcd_Port@a                cstackBANK0  000C
Lcd_Set_Cursor@a          cstackBANK0  0012
Lcd_Set_Cursor@b          cstackBANK0  0010
Lcd_Set_Cursor@temp       cstackBANK0  0015
Lcd_Set_Cursor@y          cstackBANK0  0014
Lcd_Set_Cursor@z          cstackBANK0  0013
Lcd_Write_Char@a          cstackBANK0  0010
Lcd_Write_Char@temp       cstackBANK0  000E
Lcd_Write_Char@y          cstackBANK0  000F
Lcd_Write_Int@a           cstackBANK0  0021
Lcd_Write_Int@temp        cstackBANK0  0023
Lcd_Write_String@a        cstackBANK0  0014
Lcd_Write_String@i        cstackBANK0  0012
_Lcd_Clear                text11       00DA
_Lcd_Cmd                  text12       00E9
_Lcd_Init                 text10       0186
_Lcd_Port                 text13       00FC
_Lcd_Set_Cursor           text9        01BA
_Lcd_Write_Char           text8        013A
_Lcd_Write_Int            text3        00CC
_Lcd_Write_String         text7        011B
_RA0                      (abs)        0028
_RA1                      (abs)        0029
_RA2                      (abs)        002A
_RB0                      (abs)        0030
_RB1                      (abs)        0031
_RB2                      (abs)        0032
_RB3                      (abs)        0033
_RB5                      (abs)        0035
_RB6                      (abs)        0036
_RB7                      (abs)        0037
_TRISA                    (abs)        0085
_TRISB                    (abs)        0086
__H__absolute__           __absolute__ 0000
__Habs1                   abs1         0000
__Hbank0                  bank0        0000
__Hbank1                  bank1        0000
__HbssBANK0               bssBANK0     0000
__Hcinit                  cinit        0400
__Hclrtext                clrtext      0000
__Hcode                   code         0000
__Hcommon                 common       0000
__Hconfig                 config       2008
__HcstackBANK0            cstackBANK0  0000
__HcstackCOMMON           cstackCOMMON 0000
__Heeprom_data            eeprom_data  0000
__Hend_init               end_init     0001
__Hfunctab                functab      0000
__Hinit                   init         0000
__Hintentry               intentry     0000
__Hmaintext               maintext     0000
__Hpowerup                powerup      0000
__Hram                    ram          0000
__Hreset_vec              reset_vec    0000
__Hsfr0                   sfr0         0000
__Hsfr1                   sfr1         0000
__Hspace_0                (abs)        0400
__Hspace_1                (abs)        0049
__Hspace_2                (abs)        0000
__Hspace_3                (abs)        0000
__Hspace_4                (abs)        400F
__Hstack                  stack        0000
__Hstrings                strings      0000
__Htext                   text         0000
__L__absolute__           __absolute__ 0000
__Labs1                   abs1         0000
__Lbank0                  bank0        0000
__Lbank1                  bank1        0000
__LbssBANK0               bssBANK0     0000
__Lcinit                  cinit        03F9
__Lclrtext                clrtext      0000
__Lcode                   code         0000
__Lcommon                 common       0000
__Lconfig                 config       0000
__LcstackBANK0            cstackBANK0  0000
__LcstackCOMMON           cstackCOMMON 0000
__Leeprom_data            eeprom_data  0000
__Lend_init               end_init     0000
__Lfunctab                functab      0000
__Linit                   init         0000
__Lintentry               intentry     0000
__Lmaintext               maintext     0000
__Lpowerup                powerup      0000
__Lram                    ram          0000
__Lreset_vec              reset_vec    0000
__Lsfr0                   sfr0         0000
__Lsfr1                   sfr1         0000
__Lspace_0                (abs)        0000
__Lspace_1                (abs)        0000
__Lspace_2                (abs)        0000
__Lspace_3                (abs)        0000
__Lspace_4                (abs)        0000
__Lstack                  stack        0000
__Lstrings                strings      0000
__Ltext                   text         0000
__S0                      (abs)        0400
__S1                      (abs)        0049
__S3                      (abs)        0000
___int_sp                 stack        0000
___latbits                (abs)        0000
___lwdiv                  text6        022E
___lwdiv@counter          cstackBANK0  0018
___lwdiv@dividend         cstackBANK0  0014
___lwdiv@divisor          cstackBANK0  0012
___lwdiv@quotient         cstackBANK0  0016
___lwmod                  text5        01F3
___lwmod@counter          cstackBANK0  0010
___lwmod@dividend         cstackBANK0  000E
___lwmod@divisor          cstackBANK0  000C
___sp                     stack        0000
___stackhi                (abs)        0000
___stacklo                (abs)        0000
___wmul                   text2        0160
___wmul@multiplicand      cstackBANK0  000E
___wmul@multiplier        cstackBANK0  000C
___wmul@product           cstackBANK0  0010
__end_of_Lcd_Clear        text11       00E9
__end_of_Lcd_Cmd          text12       00FC
__end_of_Lcd_Init         text10       01BA
__end_of_Lcd_Port         text13       011B
__end_of_Lcd_Set_Cursor   text9        01F3
__end_of_Lcd_Write_Char   text8        0160
__end_of_Lcd_Write_Int    text3        00DA
__end_of_Lcd_Write_String text7        013A
__end_of___lwdiv          text6        0273
__end_of___lwmod          text5        022E
__end_of___wmul           text2        0186
__end_of__initialization  cinit        03FE
__end_of_main             maintext     03F9
__end_of_readADC          text1        02C6
__end_of_utoa             text4        0324
__initialization          cinit        03F9
__pbssBANK0               bssBANK0     0045
__pcstackBANK0            cstackBANK0  000C
__pcstackCOMMON           cstackCOMMON 0000
__pmaintext               maintext     0324
__ptext1                  text1        0273
__ptext10                 text10       0186
__ptext11                 text11       00DA
__ptext12                 text12       00E9
__ptext13                 text13       00FC
__ptext2                  text2        0160
__ptext3                  text3        00CC
__ptext4                  text4        02C6
__ptext5                  text5        01F3
__ptext6                  text6        022E
__ptext7                  text7        011B
__ptext8                  text8        013A
__ptext9                  text9        01BA
_adcVal                   bssBANK0     0047
_main                     maintext     0324
_readADC                  text1        0273
_utoa                     text4        02C6
btemp                     (abs)        004E
end_of_initialization     cinit        03FE
intlevel0                 functab      0000
intlevel1                 functab      0000
intlevel2                 functab      0000
intlevel3                 functab      0000
intlevel4                 functab      0000
intlevel5                 functab      0000
main@d1                   cstackBANK0  003F
main@d2                   cstackBANK0  0043
main@d3                   cstackBANK0  003D
main@decimalpart          cstackBANK0  0037
main@decimalpart2         cstackBANK0  003B
main@temp                 cstackBANK0  0041
main@temp2                cstackBANK0  0039
readADC@bits              cstackBANK0  0012
readADC@rxData            cstackBANK0  0013
readADC@volt              cstackBANK0  0010
reset_vec                 reset_vec    0000
start                     init         0000
start_initialization      cinit        03F9
utoa@base                 cstackBANK0  001B
utoa@buf                  cstackBANK0  0020
utoa@c                    cstackBANK0  001F
utoa@v                    cstackBANK0  001D
utoa@val                  cstackBANK0  0019
wtemp0                    (abs)        004E


MODULE INFORMATION

Module		Function		Class		Link	Load	Size
C:\Program Files\Microchip\xc8\v2.41\pic\sources\c90\common\Umul16.c
		___wmul        		CODE           	0160	0000	38

C:\Program Files\Microchip\xc8\v2.41\pic\sources\c90\common\Umul16.c estimated size: 38

C:\Program Files\Microchip\xc8\v2.41\pic\sources\c90\common\lwdiv.c
		___lwdiv       		CODE           	022E	0000	69

C:\Program Files\Microchip\xc8\v2.41\pic\sources\c90\common\lwdiv.c estimated size: 69

adc.c
		_readADC       		CODE           	0273	0000	83

adc.c estimated size: 83

shared
		__initialization		CODE           	03F9	0000	5

shared estimated size: 5

lcd.c
		_Lcd_Write_String		CODE           	011B	0000	31
		_Lcd_Write_Int 		CODE           	00CC	0000	14
		_Lcd_Init      		CODE           	0186	0000	52
		_Lcd_Write_Char		CODE           	013A	0000	38
		_Lcd_Cmd       		CODE           	00E9	0000	19
		_Lcd_Set_Cursor		CODE           	01BA	0000	57
		_Lcd_Clear     		CODE           	00DA	0000	15
		_Lcd_Port      		CODE           	00FC	0000	31

lcd.c estimated size: 257

C:\Program Files\Microchip\xc8\v2.41\pic\sources\c90\common\itoa.c
		_utoa          		CODE           	02C6	0000	94

C:\Program Files\Microchip\xc8\v2.41\pic\sources\c90\common\itoa.c estimated size: 94

C:\Program Files\Microchip\xc8\v2.41\pic\sources\c90\common\lwmod.c
		___lwmod       		CODE           	01F3	0000	59

C:\Program Files\Microchip\xc8\v2.41\pic\sources\c90\common\lwmod.c estimated size: 59

main.c
		_main          		CODE           	0324	0000	213

main.c estimated size: 213

